(dp0
S'NewFrameLayout3'
p1
(dp2
S'WindowRect'
p3
(lp4
I200
aI200
aI781
aI472
assS'NewFrameLayout1'
p5
(dp6
S'WindowRect'
p7
(lp8
I200
aI200
aI517
aI440
assS'NewFrameLayout2v'
p9
(dp10
g3
(lp11
I200
aI200
aI401
aI469
assS'NewFrameLayout4'
p12
(dp13
S'WindowRect'
p14
(lp15
I204
aI149
aI737
aI526
assS'NewFrameLayout2h'
p16
(dp17
S'WindowRect'
p18
(lp19
I341
aI262
aI693
aI424
ass.